; Function Attrs: inlinehint nounwind uwtable
define internal fastcc ptr @lean_array_fset(ptr noundef %0, ptr noundef %1, ptr noundef %2) unnamed_addr #0 {
  %4 = ptrtoint ptr %1 to i64
  %5 = lshr i64 %4, 1
  %.val.i.i = load i32, ptr %0, align 4, !tbaa !4
  %6 = icmp eq i32 %.val.i.i, 1
  br i1 %6, label %lean_ensure_exclusive_array.exit.i, label %7

7:                                                ; preds = %3
  %8 = tail call ptr @lean_copy_expand_array(ptr noundef nonnull %0, i1 noundef zeroext false) #5
  br label %lean_ensure_exclusive_array.exit.i

lean_ensure_exclusive_array.exit.i:               ; preds = %7, %3
  %.0.i.i = phi ptr [ %8, %7 ], [ %0, %3 ]
  %9 = getelementptr inbounds nuw i8, ptr %.0.i.i, i64 24
  %10 = getelementptr inbounds nuw ptr, ptr %9, i64 %5
  %11 = load ptr, ptr %10, align 8, !tbaa !9
  %12 = ptrtoint ptr %11 to i64
  %13 = and i64 %12, 1
  %.not.i = icmp eq i64 %13, 0
  br i1 %.not.i, label %14, label %lean_array_uset.exit

14:                                               ; preds = %lean_ensure_exclusive_array.exit.i
  %15 = load i32, ptr %11, align 4, !tbaa !4
  %16 = icmp sgt i32 %15, 1
  br i1 %16, label %17, label %19, !prof !11

17:                                               ; preds = %14
  %18 = add nsw i32 %15, -1
  store i32 %18, ptr %11, align 4, !tbaa !4
  br label %lean_array_uset.exit

19:                                               ; preds = %14
  %.not.i.i = icmp eq i32 %15, 0
  br i1 %.not.i.i, label %lean_array_uset.exit, label %20

20:                                               ; preds = %19
  tail call void @lean_dec_ref_cold(ptr noundef nonnull %11) #5
  br label %lean_array_uset.exit

lean_array_uset.exit:                             ; preds = %lean_ensure_exclusive_array.exit.i, %17, %19, %20
  store ptr %2, ptr %10, align 8, !tbaa !9
  ret ptr %.0.i.i
}